target datalayout = "e-m:e-p270:32:32-p271:32:32-p272:64:64-i64:64-i128:128-f80:128-n8:16:32:64-S128"
target triple = "x86_64-pc-linux-gnu"

%struct.FunctionCallInfoBaseData = type { ptr, ptr, ptr, i32, i8, i16, [0 x %struct.NullableDatum] }
%struct.NullableDatum = type { i64, i8 }

@SystemUser = internal global ptr null, align 8

; Function Attrs: inlinehint nounwind uwtable
define internal i64 @PointerGetDatum(ptr noundef %0) #6 {
  %2 = alloca ptr, align 8
  store ptr %0, ptr %2, align 8
  %3 = load ptr, ptr %2, align 8
  %4 = ptrtoint ptr %3 to i64
  ret i64 %4
}

; Function Attrs: nounwind uwtable
define dso_local ptr @GetSystemUser() #0 {
  %1 = load ptr, ptr @SystemUser, align 8
  ret ptr %1
}

; Function Attrs: nounwind uwtable
define dso_local i64 @system_user(ptr noundef %0) #0 {
  %2 = alloca i64, align 8
  %3 = alloca ptr, align 8
  %4 = alloca ptr, align 8
  %5 = alloca i32, align 4
  store ptr %0, ptr %3, align 8
  call void @llvm.lifetime.start.p0(i64 8, ptr %4) #12
  %6 = call ptr @GetSystemUser()
  store ptr %6, ptr %4, align 8
  %7 = load ptr, ptr %4, align 8
  %8 = icmp ne ptr %7, null
  br i1 %8, label %9, label %13

9:                                                ; preds = %1
  %10 = load ptr, ptr %4, align 8
  %11 = call ptr @cstring_to_text(ptr noundef %10)
  %12 = call i64 @PointerGetDatum(ptr noundef %11)
  store i64 %12, ptr %2, align 8
  store i32 1, ptr %5, align 4
  br label %20

13:                                               ; preds = %1
  br label %14

14:                                               ; preds = %13
  %15 = load ptr, ptr %3, align 8
  %16 = getelementptr inbounds nuw %struct.FunctionCallInfoBaseData, ptr %15, i32 0, i32 4
  store i8 1, ptr %16, align 4
  store i64 0, ptr %2, align 8
  store i32 1, ptr %5, align 4
  br label %20

17:                                               ; No predecessors!
  br label %18

18:                                               ; preds = %17
  br label %19

19:                                               ; preds = %18
  store i32 0, ptr %5, align 4
  br label %20

20:                                               ; preds = %19, %14, %9
  call void @llvm.lifetime.end.p0(i64 8, ptr %4) #12
  %21 = load i32, ptr %5, align 4
  switch i32 %21, label %24 [
    i32 0, label %22
    i32 1, label %22
  ]

22:                                               ; preds = %20, %20
  %23 = load i64, ptr %2, align 8
  ret i64 %23

24:                                               ; preds = %20
  unreachable
}