; Function Attrs: nounwind uwtable
define dso_local i64 @system_user(ptr noundef writeonly captures(none) %0) local_unnamed_addr #0 {
  %2 = load ptr, ptr @SystemUser, align 8
  %.not = icmp eq ptr %2, null
  br i1 %.not, label %6, label %3

3:                                                ; preds = %1
  %4 = tail call ptr @cstring_to_text(ptr noundef nonnull %2) #22
  %5 = ptrtoint ptr %4 to i64
  br label %8

6:                                                ; preds = %1
  %7 = getelementptr inbounds nuw i8, ptr %0, i64 28
  store i8 1, ptr %7, align 4
  br label %8

8:                                                ; preds = %6, %3
  %.0 = phi i64 [ %5, %3 ], [ 0, %6 ]
  ret i64 %.0
}